target datalayout = "e-m:e-p270:32:32-p271:32:32-p272:64:64-i64:64-i128:128-f80:128-n8:16:32:64-S128"
target triple = "x86_64-pc-linux-gnu"

%struct.SurfaceDataRasInfo = type { %struct.SurfaceDataBounds, ptr, i32, i32, i32, i32, ptr, ptr, ptr, ptr, ptr, ptr, i32, %union.anon.0 }
%struct.SurfaceDataBounds = type { i32, i32, i32, i32 }
%union.anon.0 = type { ptr, [56 x i8] }

; Function Attrs: nounwind uwtable
define hidden void @Index8GrayToIndex8GrayConvert(ptr noundef %0, ptr noundef %1, i32 noundef %2, i32 noundef %3, ptr noundef %4, ptr noundef %5, ptr noundef %6, ptr noundef %7) #0 {
  %9 = alloca ptr, align 8
  %10 = alloca ptr, align 8
  %11 = alloca i32, align 4
  %12 = alloca i32, align 4
  %13 = alloca ptr, align 8
  %14 = alloca ptr, align 8
  %15 = alloca ptr, align 8
  %16 = alloca ptr, align 8
  %17 = alloca ptr, align 8
  %18 = alloca ptr, align 8
  %19 = alloca i32, align 4
  %20 = alloca i32, align 4
  %21 = alloca ptr, align 8
  %22 = alloca ptr, align 8
  %23 = alloca ptr, align 8
  %24 = alloca i32, align 4
  %25 = alloca i32, align 4
  %26 = alloca i32, align 4
  %27 = alloca i32, align 4
  store ptr %0, ptr %9, align 8
  store ptr %1, ptr %10, align 8
  store i32 %2, ptr %11, align 4
  store i32 %3, ptr %12, align 4
  store ptr %4, ptr %13, align 8
  store ptr %5, ptr %14, align 8
  store ptr %6, ptr %15, align 8
  store ptr %7, ptr %16, align 8
  %28 = load ptr, ptr %13, align 8
  %29 = getelementptr inbounds %struct.SurfaceDataRasInfo, ptr %28, i32 0, i32 4
  %30 = load i32, ptr %29, align 8
  store i32 %30, ptr %19, align 4
  %31 = load ptr, ptr %14, align 8
  %32 = getelementptr inbounds %struct.SurfaceDataRasInfo, ptr %31, i32 0, i32 4
  %33 = load i32, ptr %32, align 8
  store i32 %33, ptr %20, align 4
  %34 = load ptr, ptr %13, align 8
  %35 = getelementptr inbounds %struct.SurfaceDataRasInfo, ptr %34, i32 0, i32 6
  %36 = load ptr, ptr %35, align 8
  store ptr %36, ptr %17, align 8
  %37 = load ptr, ptr %14, align 8
  %38 = getelementptr inbounds %struct.SurfaceDataRasInfo, ptr %37, i32 0, i32 6
  %39 = load ptr, ptr %38, align 8
  store ptr %39, ptr %18, align 8
  %40 = load ptr, ptr %17, align 8
  %41 = load ptr, ptr %18, align 8
  %42 = load ptr, ptr %13, align 8
  %43 = load ptr, ptr %14, align 8
  %44 = call zeroext i8 @checkSameLut(ptr noundef %40, ptr noundef %41, ptr noundef %42, ptr noundef %43)
  %45 = icmp ne i8 %44, 0
  br i1 %45, label %46, label %69

46:                                               ; preds = %8
  br label %47

47:                                               ; preds = %64, %46
  %48 = load ptr, ptr %10, align 8
  %49 = load ptr, ptr %9, align 8
  %50 = load i32, ptr %11, align 4
  %51 = zext i32 %50 to i64
  call void @llvm.memcpy.p0.p0.i64(ptr align 1 %48, ptr align 1 %49, i64 %51, i1 false)
  %52 = load ptr, ptr %9, align 8
  %53 = ptrtoint ptr %52 to i64
  %54 = load i32, ptr %19, align 4
  %55 = sext i32 %54 to i64
  %56 = add nsw i64 %53, %55
  %57 = inttoptr i64 %56 to ptr
  store ptr %57, ptr %9, align 8
  %58 = load ptr, ptr %10, align 8
  %59 = ptrtoint ptr %58 to i64
  %60 = load i32, ptr %20, align 4
  %61 = sext i32 %60 to i64
  %62 = add nsw i64 %59, %61
  %63 = inttoptr i64 %62 to ptr
  store ptr %63, ptr %10, align 8
  br label %64

64:                                               ; preds = %47
  %65 = load i32, ptr %12, align 4
  %66 = add i32 %65, -1
  store i32 %66, ptr %12, align 4
  %67 = icmp ugt i32 %66, 0
  br i1 %67, label %47, label %68, !llvm.loop !15

68:                                               ; preds = %64
  br label %146

69:                                               ; preds = %8
  %70 = load ptr, ptr %14, align 8
  %71 = getelementptr inbounds %struct.SurfaceDataRasInfo, ptr %70, i32 0, i32 11
  %72 = load ptr, ptr %71, align 8
  store ptr %72, ptr %21, align 8
  br label %73

73:                                               ; preds = %69
  %74 = load ptr, ptr %9, align 8
  store ptr %74, ptr %22, align 8
  %75 = load ptr, ptr %10, align 8
  store ptr %75, ptr %23, align 8
  %76 = load ptr, ptr %13, align 8
  %77 = getelementptr inbounds %struct.SurfaceDataRasInfo, ptr %76, i32 0, i32 4
  %78 = load i32, ptr %77, align 8
  store i32 %78, ptr %24, align 4
  %79 = load ptr, ptr %14, align 8
  %80 = getelementptr inbounds %struct.SurfaceDataRasInfo, ptr %79, i32 0, i32 4
  %81 = load i32, ptr %80, align 8
  store i32 %81, ptr %25, align 4
  %82 = load ptr, ptr %14, align 8
  %83 = getelementptr inbounds %struct.SurfaceDataRasInfo, ptr %82, i32 0, i32 11
  %84 = load ptr, ptr %83, align 8
  store ptr %84, ptr %21, align 8
  %85 = load i32, ptr %11, align 4
  %86 = mul i32 %85, 1
  %87 = load i32, ptr %24, align 4
  %88 = sub i32 %87, %86
  store i32 %88, ptr %24, align 4
  %89 = load i32, ptr %11, align 4
  %90 = mul i32 %89, 1
  %91 = load i32, ptr %25, align 4
  %92 = sub i32 %91, %90
  store i32 %92, ptr %25, align 4
  br label %93

93:                                               ; preds = %140, %73
  %94 = load i32, ptr %11, align 4
  store i32 %94, ptr %26, align 4
  br label %95

95:                                               ; preds = %123, %93
  br label %96

96:                                               ; preds = %95
  %97 = load ptr, ptr %17, align 8
  %98 = load ptr, ptr %22, align 8
  %99 = getelementptr inbounds i8, ptr %98, i64 0
  %100 = load i8, ptr %99, align 1
  %101 = zext i8 %100 to i64
  %102 = getelementptr inbounds i32, ptr %97, i64 %101
  %103 = load i32, ptr %102, align 4
  %104 = trunc i32 %103 to i8
  %105 = zext i8 %104 to i32
  store i32 %105, ptr %27, align 4
  %106 = load ptr, ptr %21, align 8
  %107 = load i32, ptr %27, align 4
  %108 = sext i32 %107 to i64
  %109 = getelementptr inbounds i32, ptr %106, i64 %108
  %110 = load i32, ptr %109, align 4
  %111 = trunc i32 %110 to i8
  %112 = load ptr, ptr %23, align 8
  %113 = getelementptr inbounds i8, ptr %112, i64 0
  store i8 %111, ptr %113, align 1
  br label %114

114:                                              ; preds = %96
  %115 = load ptr, ptr %22, align 8
  %116 = ptrtoint ptr %115 to i64
  %117 = add nsw i64 %116, 1
  %118 = inttoptr i64 %117 to ptr
  store ptr %118, ptr %22, align 8
  %119 = load ptr, ptr %23, align 8
  %120 = ptrtoint ptr %119 to i64
  %121 = add nsw i64 %120, 1
  %122 = inttoptr i64 %121 to ptr
  store ptr %122, ptr %23, align 8
  br label %123

123:                                              ; preds = %114
  %124 = load i32, ptr %26, align 4
  %125 = add i32 %124, -1
  store i32 %125, ptr %26, align 4
  %126 = icmp ugt i32 %125, 0
  br i1 %126, label %95, label %127, !llvm.loop !16

127:                                              ; preds = %123
  %128 = load ptr, ptr %22, align 8
  %129 = ptrtoint ptr %128 to i64
  %130 = load i32, ptr %24, align 4
  %131 = sext i32 %130 to i64
  %132 = add nsw i64 %129, %131
  %133 = inttoptr i64 %132 to ptr
  store ptr %133, ptr %22, align 8
  %134 = load ptr, ptr %23, align 8
  %135 = ptrtoint ptr %134 to i64
  %136 = load i32, ptr %25, align 4
  %137 = sext i32 %136 to i64
  %138 = add nsw i64 %135, %137
  %139 = inttoptr i64 %138 to ptr
  store ptr %139, ptr %23, align 8
  br label %140

140:                                              ; preds = %127
  %141 = load i32, ptr %12, align 4
  %142 = add i32 %141, -1
  store i32 %142, ptr %12, align 4
  %143 = icmp ugt i32 %142, 0
  br i1 %143, label %93, label %144, !llvm.loop !17

144:                                              ; preds = %140
  br label %145

145:                                              ; preds = %144
  br label %146

146:                                              ; preds = %145, %68
  ret void
}