; Function Attrs: nounwind uwtable
define hidden void @Index8GrayToIndex8GrayConvert(ptr noundef %0, ptr noundef %1, i32 noundef %2, i32 noundef %3, ptr noundef %4, ptr noundef %5, ptr nocapture readnone %6, ptr nocapture readnone %7) #1 {
  %9 = getelementptr inbounds i8, ptr %4, i64 32
  %10 = load i32, ptr %9, align 8
  %11 = getelementptr inbounds i8, ptr %5, i64 32
  %12 = load i32, ptr %11, align 8
  %13 = getelementptr inbounds i8, ptr %4, i64 40
  %14 = load ptr, ptr %13, align 8
  %15 = getelementptr inbounds i8, ptr %5, i64 40
  %16 = load ptr, ptr %15, align 8
  %17 = tail call zeroext i8 @checkSameLut(ptr noundef %14, ptr noundef %16, ptr noundef %4, ptr noundef %5) #8
  %.not = icmp eq i8 %17, 0
  br i1 %.not, label %29, label %.preheader

.preheader:                                       ; preds = %8
  %18 = zext i32 %2 to i64
  %19 = sext i32 %10 to i64
  %20 = sext i32 %12 to i64
  br label %21

21:                                               ; preds = %.preheader, %21
  %.044 = phi i32 [ %28, %21 ], [ %3, %.preheader ]
  %.043 = phi ptr [ %27, %21 ], [ %1, %.preheader ]
  %.0 = phi ptr [ %24, %21 ], [ %0, %.preheader ]
  tail call void @llvm.memcpy.p0.p0.i64(ptr align 1 %.043, ptr align 1 %.0, i64 %18, i1 false)
  %22 = ptrtoint ptr %.0 to i64
  %23 = add nsw i64 %22, %19
  %24 = inttoptr i64 %23 to ptr
  %25 = ptrtoint ptr %.043 to i64
  %26 = add nsw i64 %25, %20
  %27 = inttoptr i64 %26 to ptr
  %28 = add i32 %.044, -1
  %.not49 = icmp eq i32 %28, 0
  br i1 %.not49, label %.loopexit, label %21, !llvm.loop !15

29:                                               ; preds = %8
  %30 = getelementptr inbounds i8, ptr %5, i64 80
  %31 = load i32, ptr %9, align 8
  %32 = load i32, ptr %11, align 8
  %33 = load ptr, ptr %30, align 8
  %34 = sub i32 %31, %2
  %35 = sub i32 %32, %2
  %36 = sext i32 %34 to i64
  %37 = sext i32 %35 to i64
  br label %38

38:                                               ; preds = %56, %29
  %.145 = phi i32 [ %3, %29 ], [ %61, %56 ]
  %.041 = phi ptr [ %0, %29 ], [ %58, %56 ]
  %.040 = phi ptr [ %1, %29 ], [ %60, %56 ]
  br label %39

39:                                               ; preds = %39, %38
  %.142 = phi ptr [ %.041, %38 ], [ %51, %39 ]
  %.1 = phi ptr [ %.040, %38 ], [ %54, %39 ]
  %.039 = phi i32 [ %2, %38 ], [ %55, %39 ]
  %40 = load i8, ptr %.142, align 1
  %41 = zext i8 %40 to i64
  %42 = getelementptr inbounds i32, ptr %14, i64 %41
  %43 = load i32, ptr %42, align 4
  %44 = and i32 %43, 255
  %45 = zext nneg i32 %44 to i64
  %46 = getelementptr inbounds i32, ptr %33, i64 %45
  %47 = load i32, ptr %46, align 4
  %48 = trunc i32 %47 to i8
  store i8 %48, ptr %.1, align 1
  %49 = ptrtoint ptr %.142 to i64
  %50 = add nsw i64 %49, 1
  %51 = inttoptr i64 %50 to ptr
  %52 = ptrtoint ptr %.1 to i64
  %53 = add nsw i64 %52, 1
  %54 = inttoptr i64 %53 to ptr
  %55 = add i32 %.039, -1
  %.not47 = icmp eq i32 %55, 0
  br i1 %.not47, label %56, label %39, !llvm.loop !16

56:                                               ; preds = %39
  %57 = add nsw i64 %50, %36
  %58 = inttoptr i64 %57 to ptr
  %59 = add nsw i64 %53, %37
  %60 = inttoptr i64 %59 to ptr
  %61 = add i32 %.145, -1
  %.not48 = icmp eq i32 %61, 0
  br i1 %.not48, label %.loopexit, label %38, !llvm.loop !17

.loopexit:                                        ; preds = %21, %56
  ret void
}